; Function Attrs: nounwind uwtable
define ptr @l_Lean_Elab_Term_Quotation_withNewLocals___rarg(ptr noundef readonly captures(none) %0, ptr noundef %1, ptr noundef %2, ptr noundef %3, ptr noundef %4, ptr noundef %5, ptr noundef %6, ptr noundef %7, ptr noundef %8, ptr noundef %9) local_unnamed_addr #0 {
lean_nat_lt.exit:
  %10 = getelementptr i8, ptr %0, i64 8
  %.val = load i64, ptr %10, align 8, !tbaa !14
  %.mask = and i64 %.val, 9223372036854775807
  %.not = icmp eq i64 %.mask, 0
  br i1 %.not, label %lean_dec.exit, label %.lr.ph.i

.lr.ph.i:                                         ; preds = %lean_nat_lt.exit
  %11 = getelementptr inbounds nuw i8, ptr %0, i64 24
  br label %12

12:                                               ; preds = %23, %.lr.ph.i
  %.01528.i = phi i64 [ 0, %.lr.ph.i ], [ %25, %23 ]
  %.01727.i = phi ptr [ %2, %.lr.ph.i ], [ %24, %23 ]
  %13 = getelementptr inbounds nuw [0 x ptr], ptr %11, i64 0, i64 %.01528.i
  %14 = load ptr, ptr %13, align 8, !tbaa !9
  %15 = ptrtoint ptr %14 to i64
  %16 = and i64 %15, 1
  %.not.i.i = icmp eq i64 %16, 0
  br i1 %.not.i.i, label %17, label %23

17:                                               ; preds = %12
  %.val.i.i.i = load i32, ptr %14, align 4, !tbaa !4
  %18 = icmp sgt i32 %.val.i.i.i, 0
  br i1 %18, label %19, label %21, !prof !13

19:                                               ; preds = %17
  %20 = add nuw i32 %.val.i.i.i, 1
  store i32 %20, ptr %14, align 4, !tbaa !4
  br label %23

21:                                               ; preds = %17
  %.not.i.i.i = icmp eq i32 %.val.i.i.i, 0
  br i1 %.not.i.i.i, label %23, label %22

22:                                               ; preds = %21
  tail call void @lean_inc_ref_cold(ptr noundef nonnull %14) #4
  br label %23

23:                                               ; preds = %22, %21, %19, %12
  %24 = tail call ptr @l_Lean_RBNode_insert___at_Lean_NameSet_insert___spec__1(ptr noundef %.01727.i, ptr noundef %14, ptr noundef nonnull inttoptr (i64 1 to ptr)) #4
  %25 = add nuw nsw i64 %.01528.i, 1
  %.not.i54 = icmp eq i64 %25, %.mask
  br i1 %.not.i54, label %lean_dec.exit, label %12

lean_dec.exit:                                    ; preds = %23, %lean_nat_lt.exit
  %.lcssa.sink = phi ptr [ %2, %lean_nat_lt.exit ], [ %24, %23 ]
  %26 = tail call ptr @lean_apply_8(ptr noundef %1, ptr noundef %.lcssa.sink, ptr noundef %3, ptr noundef %4, ptr noundef %5, ptr noundef %6, ptr noundef %7, ptr noundef %8, ptr noundef %9) #4
  ret ptr %26
}